target datalayout = "e-m:e-p270:32:32-p271:32:32-p272:64:64-i64:64-i128:128-f80:128-n8:16:32:64-S128"
target triple = "x86_64-pc-linux-gnu"

%struct.ipc_client_connection = type { i32 }

@.str = private unnamed_addr constant [36 x i8] c"compat/simple-ipc/ipc-unix-socket.c\00", align 1
@.str.1 = private unnamed_addr constant [11 x i8] c"ipc-client\00", align 1
@.str.2 = private unnamed_addr constant [12 x i8] c"try-connect\00", align 1
@.str.3 = private unnamed_addr constant [17 x i8] c"try-connect/path\00", align 1
@.str.4 = private unnamed_addr constant [18 x i8] c"try-connect/state\00", align 1

; Function Attrs: nounwind uwtable
define internal i32 @connect_to_server(ptr noundef %0, i32 noundef %1, ptr noundef %2, ptr noundef %3) #0 {
  %5 = alloca i32, align 4
  %6 = alloca ptr, align 8
  %7 = alloca i32, align 4
  %8 = alloca ptr, align 8
  %9 = alloca ptr, align 8
  %10 = alloca i32, align 4
  %11 = alloca i32, align 4
  %12 = alloca i32, align 4
  store ptr %0, ptr %6, align 8, !tbaa !4
  store i32 %1, ptr %7, align 4, !tbaa !9
  store ptr %2, ptr %8, align 8, !tbaa !17
  store ptr %3, ptr %9, align 8, !tbaa !23
  call void @llvm.lifetime.start.p0(i64 4, ptr %10) #10
  %13 = load ptr, ptr %9, align 8, !tbaa !23
  store i32 -1, ptr %13, align 4, !tbaa !9
  store i32 0, ptr %10, align 4, !tbaa !9
  br label %14

14:                                               ; preds = %73, %4
  %15 = load i32, ptr %10, align 4, !tbaa !9
  %16 = load i32, ptr %7, align 4, !tbaa !9
  %17 = icmp slt i32 %15, %16
  br i1 %17, label %18, label %76

18:                                               ; preds = %14
  call void @llvm.lifetime.start.p0(i64 4, ptr %11) #10
  %19 = load ptr, ptr %6, align 8, !tbaa !4
  %20 = load ptr, ptr %8, align 8, !tbaa !17
  %21 = load i8, ptr %20, align 4
  %22 = lshr i8 %21, 2
  %23 = and i8 %22, 1
  %24 = zext i8 %23 to i32
  %25 = call i32 @unix_stream_connect(ptr noundef %19, i32 noundef %24)
  store i32 %25, ptr %11, align 4, !tbaa !9
  %26 = load i32, ptr %11, align 4, !tbaa !9
  %27 = icmp ne i32 %26, -1
  br i1 %27, label %28, label %31

28:                                               ; preds = %18
  %29 = load i32, ptr %11, align 4, !tbaa !9
  %30 = load ptr, ptr %9, align 8, !tbaa !23
  store i32 %29, ptr %30, align 4, !tbaa !9
  store i32 0, ptr %5, align 4
  store i32 1, ptr %12, align 4
  br label %70

31:                                               ; preds = %18
  %32 = call ptr @__errno_location() #11
  %33 = load i32, ptr %32, align 4, !tbaa !9
  %34 = icmp eq i32 %33, 2
  br i1 %34, label %35, label %44

35:                                               ; preds = %31
  %36 = load ptr, ptr %8, align 8, !tbaa !17
  %37 = load i8, ptr %36, align 4
  %38 = lshr i8 %37, 1
  %39 = and i8 %38, 1
  %40 = zext i8 %39 to i32
  %41 = icmp ne i32 %40, 0
  br i1 %41, label %43, label %42

42:                                               ; preds = %35
  store i32 3, ptr %5, align 4
  store i32 1, ptr %12, align 4
  br label %70

43:                                               ; preds = %35
  br label %69

44:                                               ; preds = %31
  %45 = call ptr @__errno_location() #11
  %46 = load i32, ptr %45, align 4, !tbaa !9
  %47 = icmp eq i32 %46, 110
  br i1 %47, label %48, label %56

48:                                               ; preds = %44
  %49 = load ptr, ptr %8, align 8, !tbaa !17
  %50 = load i8, ptr %49, align 4
  %51 = and i8 %50, 1
  %52 = zext i8 %51 to i32
  %53 = icmp ne i32 %52, 0
  br i1 %53, label %55, label %54

54:                                               ; preds = %48
  store i32 1, ptr %5, align 4
  store i32 1, ptr %12, align 4
  br label %70

55:                                               ; preds = %48
  br label %69

56:                                               ; preds = %44
  %57 = call ptr @__errno_location() #11
  %58 = load i32, ptr %57, align 4, !tbaa !9
  %59 = icmp eq i32 %58, 111
  br i1 %59, label %60, label %68

60:                                               ; preds = %56
  %61 = load ptr, ptr %8, align 8, !tbaa !17
  %62 = load i8, ptr %61, align 4
  %63 = and i8 %62, 1
  %64 = zext i8 %63 to i32
  %65 = icmp ne i32 %64, 0
  br i1 %65, label %67, label %66

66:                                               ; preds = %60
  store i32 1, ptr %5, align 4
  store i32 1, ptr %12, align 4
  br label %70

67:                                               ; preds = %60
  br label %69

68:                                               ; preds = %56
  store i32 4, ptr %5, align 4
  store i32 1, ptr %12, align 4
  br label %70

69:                                               ; preds = %67, %55, %43
  call void @sleep_millisec(i32 noundef 50)
  store i32 0, ptr %12, align 4
  br label %70

70:                                               ; preds = %69, %68, %66, %54, %42, %28
  call void @llvm.lifetime.end.p0(i64 4, ptr %11) #10
  %71 = load i32, ptr %12, align 4
  switch i32 %71, label %77 [
    i32 0, label %72
  ]

72:                                               ; preds = %70
  br label %73

73:                                               ; preds = %72
  %74 = load i32, ptr %10, align 4, !tbaa !9
  %75 = add nsw i32 %74, 50
  store i32 %75, ptr %10, align 4, !tbaa !9
  br label %14, !llvm.loop !25

76:                                               ; preds = %14
  store i32 1, ptr %5, align 4
  store i32 1, ptr %12, align 4
  br label %77

77:                                               ; preds = %76, %70
  call void @llvm.lifetime.end.p0(i64 4, ptr %10) #10
  %78 = load i32, ptr %5, align 4
  ret i32 %78
}

; Function Attrs: nounwind uwtable
define dso_local i32 @ipc_client_try_connect(ptr noundef %0, ptr noundef %1, ptr noundef %2) #0 {
  %4 = alloca ptr, align 8
  %5 = alloca ptr, align 8
  %6 = alloca ptr, align 8
  %7 = alloca i32, align 4
  %8 = alloca i32, align 4
  store ptr %0, ptr %4, align 8, !tbaa !4
  store ptr %1, ptr %5, align 8, !tbaa !17
  store ptr %2, ptr %6, align 8, !tbaa !19
  call void @llvm.lifetime.start.p0(i64 4, ptr %7) #10
  store i32 4, ptr %7, align 4, !tbaa !9
  call void @llvm.lifetime.start.p0(i64 4, ptr %8) #10
  store i32 -1, ptr %8, align 4, !tbaa !9
  %9 = load ptr, ptr %6, align 8, !tbaa !19
  store ptr null, ptr %9, align 8, !tbaa !11
  call void (ptr, i32, ptr, ptr, ptr, ...) @trace2_region_enter_fl(ptr noundef @.str, i32 noundef 163, ptr noundef @.str.1, ptr noundef @.str.2, ptr noundef null)
  %10 = load ptr, ptr %4, align 8, !tbaa !4
  call void @trace2_data_string_fl(ptr noundef @.str, i32 noundef 164, ptr noundef @.str.1, ptr noundef null, ptr noundef @.str.3, ptr noundef %10)
  %11 = load ptr, ptr %4, align 8, !tbaa !4
  %12 = load ptr, ptr %5, align 8, !tbaa !17
  %13 = call i32 @connect_to_server(ptr noundef %11, i32 noundef 1000, ptr noundef %12, ptr noundef %8)
  store i32 %13, ptr %7, align 4, !tbaa !9
  %14 = load i32, ptr %7, align 4, !tbaa !9
  %15 = zext i32 %14 to i64
  call void @trace2_data_intmax_fl(ptr noundef @.str, i32 noundef 170, ptr noundef @.str.1, ptr noundef null, ptr noundef @.str.4, i64 noundef %15)
  call void (ptr, i32, ptr, ptr, ptr, ...) @trace2_region_leave_fl(ptr noundef @.str, i32 noundef 171, ptr noundef @.str.1, ptr noundef @.str.2, ptr noundef null)
  %16 = load i32, ptr %7, align 4, !tbaa !9
  %17 = icmp eq i32 %16, 0
  br i1 %17, label %18, label %25

18:                                               ; preds = %3
  %19 = call ptr @xcalloc(i64 noundef 1, i64 noundef 4)
  %20 = load ptr, ptr %6, align 8, !tbaa !19
  store ptr %19, ptr %20, align 8, !tbaa !11
  %21 = load i32, ptr %8, align 4, !tbaa !9
  %22 = load ptr, ptr %6, align 8, !tbaa !19
  %23 = load ptr, ptr %22, align 8, !tbaa !11
  %24 = getelementptr inbounds nuw %struct.ipc_client_connection, ptr %23, i32 0, i32 0
  store i32 %21, ptr %24, align 4, !tbaa !21
  br label %25

25:                                               ; preds = %18, %3
  %26 = load i32, ptr %7, align 4, !tbaa !9
  call void @llvm.lifetime.end.p0(i64 4, ptr %8) #10
  call void @llvm.lifetime.end.p0(i64 4, ptr %7) #10
  ret i32 %26
}