; Function Attrs: nounwind uwtable
define dso_local range(i32 0, 5) i32 @ipc_client_try_connect(ptr noundef %0, ptr noundef readonly captures(none) %1, ptr noundef writeonly captures(none) initializes((0, 8)) %2) local_unnamed_addr #0 {
  store ptr null, ptr %2, align 8, !tbaa !12
  tail call void (ptr, i32, ptr, ptr, ptr, ...) @trace2_region_enter_fl(ptr noundef nonnull @.str, i32 noundef 163, ptr noundef nonnull @.str.1, ptr noundef nonnull @.str.2, ptr noundef null) #13
  tail call void @trace2_data_string_fl(ptr noundef nonnull @.str, i32 noundef 164, ptr noundef nonnull @.str.1, ptr noundef null, ptr noundef nonnull @.str.3, ptr noundef %0) #13
  br label %4

4:                                                ; preds = %22, %3
  %.01422.i = phi i32 [ 0, %3 ], [ %23, %22 ]
  %5 = load i8, ptr %1, align 4
  %6 = lshr i8 %5, 2
  %7 = and i8 %6, 1
  %8 = zext nneg i8 %7 to i32
  %9 = tail call i32 @unix_stream_connect(ptr noundef %0, i32 noundef %8) #13
  %.not.i.not = icmp eq i32 %9, -1
  br i1 %.not.i.not, label %10, label %connect_to_server.exit

10:                                               ; preds = %4
  %11 = tail call ptr @__errno_location() #14
  %12 = load i32, ptr %11, align 4, !tbaa !4
  switch i32 %12, label %connect_to_server.exit [
    i32 2, label %13
    i32 110, label %16
    i32 111, label %19
  ]

13:                                               ; preds = %10
  %14 = load i8, ptr %1, align 4
  %15 = and i8 %14, 2
  %.not19.i = icmp eq i8 %15, 0
  br i1 %.not19.i, label %connect_to_server.exit, label %22

16:                                               ; preds = %10
  %17 = load i8, ptr %1, align 4
  %18 = and i8 %17, 1
  %.not18.i = icmp eq i8 %18, 0
  br i1 %.not18.i, label %connect_to_server.exit, label %22

19:                                               ; preds = %10
  %20 = load i8, ptr %1, align 4
  %21 = and i8 %20, 1
  %.not17.i = icmp eq i8 %21, 0
  br i1 %.not17.i, label %connect_to_server.exit, label %22

22:                                               ; preds = %19, %16, %13
  tail call void @sleep_millisec(i32 noundef 50) #13
  %23 = add nuw nsw i32 %.01422.i, 50
  %24 = icmp samesign ult i32 %.01422.i, 950
  br i1 %24, label %4, label %connect_to_server.exit, !llvm.loop !17

connect_to_server.exit:                           ; preds = %4, %10, %13, %16, %19, %22
  %.2.i = phi i32 [ 0, %4 ], [ 4, %10 ], [ 3, %13 ], [ 1, %16 ], [ 1, %19 ], [ 1, %22 ]
  %25 = zext nneg i32 %.2.i to i64
  tail call void @trace2_data_intmax_fl(ptr noundef nonnull @.str, i32 noundef 170, ptr noundef nonnull @.str.1, ptr noundef null, ptr noundef nonnull @.str.4, i64 noundef %25) #13
  tail call void (ptr, i32, ptr, ptr, ptr, ...) @trace2_region_leave_fl(ptr noundef nonnull @.str, i32 noundef 171, ptr noundef nonnull @.str.1, ptr noundef nonnull @.str.2, ptr noundef null) #13
  br i1 %.not.i.not, label %28, label %26

26:                                               ; preds = %connect_to_server.exit
  %27 = tail call ptr @xcalloc(i64 noundef 1, i64 noundef 4) #13
  store ptr %27, ptr %2, align 8, !tbaa !12
  store i32 %9, ptr %27, align 4, !tbaa !15
  br label %28

28:                                               ; preds = %26, %connect_to_server.exit
  ret i32 %.2.i
}